; Function Attrs: nounwind uwtable
define ptr @l___private_Lean_Meta_Tactic_Replace_0__Lean_Meta_replaceLocalDeclCore(ptr noundef %0, ptr noundef %1, ptr noundef %2, ptr noundef %3, ptr noundef %4, ptr noundef %5, ptr noundef %6, ptr noundef %7, ptr noundef %8) local_unnamed_addr #0 {
  %10 = ptrtoint ptr %0 to i64
  %11 = and i64 %10, 1
  %.not = icmp eq i64 %11, 0
  br i1 %.not, label %12, label %lean_inc.exit

12:                                               ; preds = %9
  %.val.i = load i32, ptr %0, align 4, !tbaa !4
  %13 = icmp sgt i32 %.val.i, 0
  br i1 %13, label %14, label %16, !prof !9

14:                                               ; preds = %12
  %15 = add nuw i32 %.val.i, 1
  store i32 %15, ptr %0, align 4, !tbaa !4
  br label %lean_inc.exit

16:                                               ; preds = %12
  %.not.i = icmp eq i32 %.val.i, 0
  br i1 %.not.i, label %lean_inc.exit, label %17

17:                                               ; preds = %16
  tail call void @lean_inc_ref_cold(ptr noundef nonnull %0) #4
  br label %lean_inc.exit

lean_inc.exit:                                    ; preds = %17, %16, %14, %9
  tail call void @lean_inc_heartbeat() #4
  %18 = tail call noalias ptr @mi_malloc_small(i64 noundef 56) #4
  %19 = icmp eq ptr %18, null
  br i1 %19, label %20, label %lean_alloc_closure.exit

20:                                               ; preds = %lean_inc.exit
  tail call void @lean_internal_panic_out_of_memory() #5
  unreachable

lean_alloc_closure.exit:                          ; preds = %lean_inc.exit
  %21 = getelementptr inbounds nuw i8, ptr %18, i64 4
  store i32 1, ptr %18, align 4, !tbaa !4
  store i32 -184549320, ptr %21, align 4
  %22 = getelementptr inbounds nuw i8, ptr %18, i64 8
  store ptr @l___private_Lean_Meta_Tactic_Replace_0__Lean_Meta_replaceLocalDeclCore___lambda__1, ptr %22, align 8, !tbaa !10
  %23 = getelementptr inbounds nuw i8, ptr %18, i64 16
  store i16 9, ptr %23, align 8, !tbaa !14
  %24 = getelementptr inbounds nuw i8, ptr %18, i64 18
  store i16 4, ptr %24, align 2, !tbaa !14
  %25 = getelementptr inbounds nuw i8, ptr %18, i64 24
  store ptr %1, ptr %25, align 8, !tbaa !10
  %26 = getelementptr inbounds nuw i8, ptr %18, i64 32
  store ptr %3, ptr %26, align 8, !tbaa !10
  %27 = getelementptr inbounds nuw i8, ptr %18, i64 40
  store ptr %2, ptr %27, align 8, !tbaa !10
  %28 = getelementptr inbounds nuw i8, ptr %18, i64 48
  store ptr %0, ptr %28, align 8, !tbaa !10
  %29 = tail call ptr @l_Lean_MVarId_withContext___at___private_Lean_Meta_SynthInstance_0__Lean_Meta_synthPendingImp___spec__2___rarg(ptr noundef %0, ptr noundef nonnull %18, ptr noundef %4, ptr noundef %5, ptr noundef %6, ptr noundef %7, ptr noundef %8) #4
  ret ptr %29
}